target datalayout = "e-m:e-p270:32:32-p271:32:32-p272:64:64-i64:64-i128:128-f80:128-n8:16:32:64-S128"
target triple = "x86_64-pc-linux-gnu"

; Function Attrs: mustprogress nounwind uwtable
define noundef i32 @_ZN4Cube11CornerIndexEiii(i32 noundef %0, i32 noundef %1, i32 noundef %2) #1 align 2 {
  %4 = alloca i32, align 4
  %5 = alloca i32, align 4
  %6 = alloca i32, align 4
  store i32 %0, ptr %4, align 4
  store i32 %1, ptr %5, align 4
  store i32 %2, ptr %6, align 4
  %7 = load i32, ptr %6, align 4
  %8 = shl i32 %7, 2
  %9 = load i32, ptr %5, align 4
  %10 = shl i32 %9, 1
  %11 = or i32 %8, %10
  %12 = load i32, ptr %4, align 4
  %13 = or i32 %11, %12
  ret i32 %13
}

; Function Attrs: mustprogress nounwind uwtable
define void @_ZN4Cube15FactorFaceIndexEiRiS0_S0_(i32 noundef %0, ptr noundef nonnull align 4 dereferenceable(4) %1, ptr noundef nonnull align 4 dereferenceable(4) %2, ptr noundef nonnull align 4 dereferenceable(4) %3) #1 align 2 {
  %5 = alloca i32, align 4
  %6 = alloca ptr, align 8
  %7 = alloca ptr, align 8
  %8 = alloca ptr, align 8
  store i32 %0, ptr %5, align 4
  store ptr %1, ptr %6, align 8
  store ptr %2, ptr %7, align 8
  store ptr %3, ptr %8, align 8
  %9 = load ptr, ptr %8, align 8
  store i32 0, ptr %9, align 4
  %10 = load ptr, ptr %7, align 8
  store i32 0, ptr %10, align 4
  %11 = load ptr, ptr %6, align 8
  store i32 0, ptr %11, align 4
  %12 = load i32, ptr %5, align 4
  switch i32 %12, label %25 [
    i32 0, label %13
    i32 1, label %15
    i32 2, label %17
    i32 3, label %19
    i32 4, label %21
    i32 5, label %23
  ]

13:                                               ; preds = %4
  %14 = load ptr, ptr %6, align 8
  store i32 -1, ptr %14, align 4
  br label %25

15:                                               ; preds = %4
  %16 = load ptr, ptr %6, align 8
  store i32 1, ptr %16, align 4
  br label %25

17:                                               ; preds = %4
  %18 = load ptr, ptr %7, align 8
  store i32 -1, ptr %18, align 4
  br label %25

19:                                               ; preds = %4
  %20 = load ptr, ptr %7, align 8
  store i32 1, ptr %20, align 4
  br label %25

21:                                               ; preds = %4
  %22 = load ptr, ptr %8, align 8
  store i32 -1, ptr %22, align 4
  br label %25

23:                                               ; preds = %4
  %24 = load ptr, ptr %8, align 8
  store i32 1, ptr %24, align 4
  br label %25

25:                                               ; preds = %23, %21, %19, %17, %15, %13, %4
  ret void
}

; Function Attrs: mustprogress nounwind uwtable
define noundef zeroext i8 @_ZN13MarchingCubes12GetFaceIndexEPKffi(ptr noundef %0, float noundef %1, i32 noundef %2) #1 align 2 {
  %4 = alloca ptr, align 8
  %5 = alloca float, align 4
  %6 = alloca i32, align 4
  %7 = alloca i32, align 4
  %8 = alloca i32, align 4
  %9 = alloca i32, align 4
  %10 = alloca i32, align 4
  %11 = alloca i32, align 4
  %12 = alloca i8, align 1
  %13 = alloca [2 x [2 x double]], align 16
  store ptr %0, ptr %4, align 8
  store float %1, ptr %5, align 4
  store i32 %2, ptr %6, align 4
  store i8 0, ptr %12, align 1
  %14 = load i32, ptr %6, align 4
  call void @_ZN4Cube15FactorFaceIndexEiRiS0_S0_(i32 noundef %14, ptr noundef nonnull align 4 dereferenceable(4) %9, ptr noundef nonnull align 4 dereferenceable(4) %10, ptr noundef nonnull align 4 dereferenceable(4) %11)
  %15 = load i32, ptr %9, align 4
  %16 = icmp slt i32 %15, 0
  br i1 %16, label %17, label %48

17:                                               ; preds = %3
  store i32 0, ptr %7, align 4
  br label %18

18:                                               ; preds = %44, %17
  %19 = load i32, ptr %7, align 4
  %20 = icmp slt i32 %19, 2
  br i1 %20, label %21, label %47

21:                                               ; preds = %18
  store i32 0, ptr %8, align 4
  br label %22

22:                                               ; preds = %40, %21
  %23 = load i32, ptr %8, align 4
  %24 = icmp slt i32 %23, 2
  br i1 %24, label %25, label %43

25:                                               ; preds = %22
  %26 = load ptr, ptr %4, align 8
  %27 = load i32, ptr %7, align 4
  %28 = load i32, ptr %8, align 4
  %29 = call noundef i32 @_ZN4Cube11CornerIndexEiii(i32 noundef 0, i32 noundef %27, i32 noundef %28)
  %30 = sext i32 %29 to i64
  %31 = getelementptr inbounds float, ptr %26, i64 %30
  %32 = load float, ptr %31, align 4
  %33 = fpext float %32 to double
  %34 = load i32, ptr %7, align 4
  %35 = sext i32 %34 to i64
  %36 = getelementptr inbounds [2 x [2 x double]], ptr %13, i64 0, i64 %35
  %37 = load i32, ptr %8, align 4
  %38 = sext i32 %37 to i64
  %39 = getelementptr inbounds [2 x double], ptr %36, i64 0, i64 %38
  store double %33, ptr %39, align 8
  br label %40

40:                                               ; preds = %25
  %41 = load i32, ptr %8, align 4
  %42 = add nsw i32 %41, 1
  store i32 %42, ptr %8, align 4
  br label %22, !llvm.loop !28

43:                                               ; preds = %22
  br label %44

44:                                               ; preds = %43
  %45 = load i32, ptr %7, align 4
  %46 = add nsw i32 %45, 1
  store i32 %46, ptr %7, align 4
  br label %18, !llvm.loop !29

47:                                               ; preds = %18
  br label %223

48:                                               ; preds = %3
  %49 = load i32, ptr %9, align 4
  %50 = icmp sgt i32 %49, 0
  br i1 %50, label %51, label %82

51:                                               ; preds = %48
  store i32 0, ptr %7, align 4
  br label %52

52:                                               ; preds = %78, %51
  %53 = load i32, ptr %7, align 4
  %54 = icmp slt i32 %53, 2
  br i1 %54, label %55, label %81

55:                                               ; preds = %52
  store i32 0, ptr %8, align 4
  br label %56

56:                                               ; preds = %74, %55
  %57 = load i32, ptr %8, align 4
  %58 = icmp slt i32 %57, 2
  br i1 %58, label %59, label %77

59:                                               ; preds = %56
  %60 = load ptr, ptr %4, align 8
  %61 = load i32, ptr %7, align 4
  %62 = load i32, ptr %8, align 4
  %63 = call noundef i32 @_ZN4Cube11CornerIndexEiii(i32 noundef 1, i32 noundef %61, i32 noundef %62)
  %64 = sext i32 %63 to i64
  %65 = getelementptr inbounds float, ptr %60, i64 %64
  %66 = load float, ptr %65, align 4
  %67 = fpext float %66 to double
  %68 = load i32, ptr %7, align 4
  %69 = sext i32 %68 to i64
  %70 = getelementptr inbounds [2 x [2 x double]], ptr %13, i64 0, i64 %69
  %71 = load i32, ptr %8, align 4
  %72 = sext i32 %71 to i64
  %73 = getelementptr inbounds [2 x double], ptr %70, i64 0, i64 %72
  store double %67, ptr %73, align 8
  br label %74

74:                                               ; preds = %59
  %75 = load i32, ptr %8, align 4
  %76 = add nsw i32 %75, 1
  store i32 %76, ptr %8, align 4
  br label %56, !llvm.loop !30

77:                                               ; preds = %56
  br label %78

78:                                               ; preds = %77
  %79 = load i32, ptr %7, align 4
  %80 = add nsw i32 %79, 1
  store i32 %80, ptr %7, align 4
  br label %52, !llvm.loop !31

81:                                               ; preds = %52
  br label %222

82:                                               ; preds = %48
  %83 = load i32, ptr %10, align 4
  %84 = icmp slt i32 %83, 0
  br i1 %84, label %85, label %116

85:                                               ; preds = %82
  store i32 0, ptr %7, align 4
  br label %86

86:                                               ; preds = %112, %85
  %87 = load i32, ptr %7, align 4
  %88 = icmp slt i32 %87, 2
  br i1 %88, label %89, label %115

89:                                               ; preds = %86
  store i32 0, ptr %8, align 4
  br label %90

90:                                               ; preds = %108, %89
  %91 = load i32, ptr %8, align 4
  %92 = icmp slt i32 %91, 2
  br i1 %92, label %93, label %111

93:                                               ; preds = %90
  %94 = load ptr, ptr %4, align 8
  %95 = load i32, ptr %7, align 4
  %96 = load i32, ptr %8, align 4
  %97 = call noundef i32 @_ZN4Cube11CornerIndexEiii(i32 noundef %95, i32 noundef 0, i32 noundef %96)
  %98 = sext i32 %97 to i64
  %99 = getelementptr inbounds float, ptr %94, i64 %98
  %100 = load float, ptr %99, align 4
  %101 = fpext float %100 to double
  %102 = load i32, ptr %7, align 4
  %103 = sext i32 %102 to i64
  %104 = getelementptr inbounds [2 x [2 x double]], ptr %13, i64 0, i64 %103
  %105 = load i32, ptr %8, align 4
  %106 = sext i32 %105 to i64
  %107 = getelementptr inbounds [2 x double], ptr %104, i64 0, i64 %106
  store double %101, ptr %107, align 8
  br label %108

108:                                              ; preds = %93
  %109 = load i32, ptr %8, align 4
  %110 = add nsw i32 %109, 1
  store i32 %110, ptr %8, align 4
  br label %90, !llvm.loop !32

111:                                              ; preds = %90
  br label %112

112:                                              ; preds = %111
  %113 = load i32, ptr %7, align 4
  %114 = add nsw i32 %113, 1
  store i32 %114, ptr %7, align 4
  br label %86, !llvm.loop !33

115:                                              ; preds = %86
  br label %221

116:                                              ; preds = %82
  %117 = load i32, ptr %10, align 4
  %118 = icmp sgt i32 %117, 0
  br i1 %118, label %119, label %150

119:                                              ; preds = %116
  store i32 0, ptr %7, align 4
  br label %120

120:                                              ; preds = %146, %119
  %121 = load i32, ptr %7, align 4
  %122 = icmp slt i32 %121, 2
  br i1 %122, label %123, label %149

123:                                              ; preds = %120
  store i32 0, ptr %8, align 4
  br label %124

124:                                              ; preds = %142, %123
  %125 = load i32, ptr %8, align 4
  %126 = icmp slt i32 %125, 2
  br i1 %126, label %127, label %145

127:                                              ; preds = %124
  %128 = load ptr, ptr %4, align 8
  %129 = load i32, ptr %7, align 4
  %130 = load i32, ptr %8, align 4
  %131 = call noundef i32 @_ZN4Cube11CornerIndexEiii(i32 noundef %129, i32 noundef 1, i32 noundef %130)
  %132 = sext i32 %131 to i64
  %133 = getelementptr inbounds float, ptr %128, i64 %132
  %134 = load float, ptr %133, align 4
  %135 = fpext float %134 to double
  %136 = load i32, ptr %7, align 4
  %137 = sext i32 %136 to i64
  %138 = getelementptr inbounds [2 x [2 x double]], ptr %13, i64 0, i64 %137
  %139 = load i32, ptr %8, align 4
  %140 = sext i32 %139 to i64
  %141 = getelementptr inbounds [2 x double], ptr %138, i64 0, i64 %140
  store double %135, ptr %141, align 8
  br label %142

142:                                              ; preds = %127
  %143 = load i32, ptr %8, align 4
  %144 = add nsw i32 %143, 1
  store i32 %144, ptr %8, align 4
  br label %124, !llvm.loop !34

145:                                              ; preds = %124
  br label %146

146:                                              ; preds = %145
  %147 = load i32, ptr %7, align 4
  %148 = add nsw i32 %147, 1
  store i32 %148, ptr %7, align 4
  br label %120, !llvm.loop !35

149:                                              ; preds = %120
  br label %220

150:                                              ; preds = %116
  %151 = load i32, ptr %11, align 4
  %152 = icmp slt i32 %151, 0
  br i1 %152, label %153, label %184

153:                                              ; preds = %150
  store i32 0, ptr %7, align 4
  br label %154

154:                                              ; preds = %180, %153
  %155 = load i32, ptr %7, align 4
  %156 = icmp slt i32 %155, 2
  br i1 %156, label %157, label %183

157:                                              ; preds = %154
  store i32 0, ptr %8, align 4
  br label %158

158:                                              ; preds = %176, %157
  %159 = load i32, ptr %8, align 4
  %160 = icmp slt i32 %159, 2
  br i1 %160, label %161, label %179

161:                                              ; preds = %158
  %162 = load ptr, ptr %4, align 8
  %163 = load i32, ptr %7, align 4
  %164 = load i32, ptr %8, align 4
  %165 = call noundef i32 @_ZN4Cube11CornerIndexEiii(i32 noundef %163, i32 noundef %164, i32 noundef 0)
  %166 = sext i32 %165 to i64
  %167 = getelementptr inbounds float, ptr %162, i64 %166
  %168 = load float, ptr %167, align 4
  %169 = fpext float %168 to double
  %170 = load i32, ptr %7, align 4
  %171 = sext i32 %170 to i64
  %172 = getelementptr inbounds [2 x [2 x double]], ptr %13, i64 0, i64 %171
  %173 = load i32, ptr %8, align 4
  %174 = sext i32 %173 to i64
  %175 = getelementptr inbounds [2 x double], ptr %172, i64 0, i64 %174
  store double %169, ptr %175, align 8
  br label %176

176:                                              ; preds = %161
  %177 = load i32, ptr %8, align 4
  %178 = add nsw i32 %177, 1
  store i32 %178, ptr %8, align 4
  br label %158, !llvm.loop !36

179:                                              ; preds = %158
  br label %180

180:                                              ; preds = %179
  %181 = load i32, ptr %7, align 4
  %182 = add nsw i32 %181, 1
  store i32 %182, ptr %7, align 4
  br label %154, !llvm.loop !37

183:                                              ; preds = %154
  br label %219

184:                                              ; preds = %150
  %185 = load i32, ptr %11, align 4
  %186 = icmp sgt i32 %185, 0
  br i1 %186, label %187, label %218

187:                                              ; preds = %184
  store i32 0, ptr %7, align 4
  br label %188

188:                                              ; preds = %214, %187
  %189 = load i32, ptr %7, align 4
  %190 = icmp slt i32 %189, 2
  br i1 %190, label %191, label %217

191:                                              ; preds = %188
  store i32 0, ptr %8, align 4
  br label %192

192:                                              ; preds = %210, %191
  %193 = load i32, ptr %8, align 4
  %194 = icmp slt i32 %193, 2
  br i1 %194, label %195, label %213

195:                                              ; preds = %192
  %196 = load ptr, ptr %4, align 8
  %197 = load i32, ptr %7, align 4
  %198 = load i32, ptr %8, align 4
  %199 = call noundef i32 @_ZN4Cube11CornerIndexEiii(i32 noundef %197, i32 noundef %198, i32 noundef 1)
  %200 = sext i32 %199 to i64
  %201 = getelementptr inbounds float, ptr %196, i64 %200
  %202 = load float, ptr %201, align 4
  %203 = fpext float %202 to double
  %204 = load i32, ptr %7, align 4
  %205 = sext i32 %204 to i64
  %206 = getelementptr inbounds [2 x [2 x double]], ptr %13, i64 0, i64 %205
  %207 = load i32, ptr %8, align 4
  %208 = sext i32 %207 to i64
  %209 = getelementptr inbounds [2 x double], ptr %206, i64 0, i64 %208
  store double %203, ptr %209, align 8
  br label %210

210:                                              ; preds = %195
  %211 = load i32, ptr %8, align 4
  %212 = add nsw i32 %211, 1
  store i32 %212, ptr %8, align 4
  br label %192, !llvm.loop !38

213:                                              ; preds = %192
  br label %214

214:                                              ; preds = %213
  %215 = load i32, ptr %7, align 4
  %216 = add nsw i32 %215, 1
  store i32 %216, ptr %7, align 4
  br label %188, !llvm.loop !39

217:                                              ; preds = %188
  br label %218

218:                                              ; preds = %217, %184
  br label %219

219:                                              ; preds = %218, %183
  br label %220

220:                                              ; preds = %219, %149
  br label %221

221:                                              ; preds = %220, %115
  br label %222

222:                                              ; preds = %221, %81
  br label %223

223:                                              ; preds = %222, %47
  %224 = getelementptr inbounds [2 x [2 x double]], ptr %13, i64 0, i64 0
  %225 = getelementptr inbounds [2 x double], ptr %224, i64 0, i64 0
  %226 = load double, ptr %225, align 16
  %227 = load float, ptr %5, align 4
  %228 = fpext float %227 to double
  %229 = fcmp olt double %226, %228
  br i1 %229, label %230, label %235

230:                                              ; preds = %223
  %231 = load i8, ptr %12, align 1
  %232 = zext i8 %231 to i32
  %233 = or i32 %232, 1
  %234 = trunc i32 %233 to i8
  store i8 %234, ptr %12, align 1
  br label %235

235:                                              ; preds = %230, %223
  %236 = getelementptr inbounds [2 x [2 x double]], ptr %13, i64 0, i64 1
  %237 = getelementptr inbounds [2 x double], ptr %236, i64 0, i64 0
  %238 = load double, ptr %237, align 16
  %239 = load float, ptr %5, align 4
  %240 = fpext float %239 to double
  %241 = fcmp olt double %238, %240
  br i1 %241, label %242, label %247

242:                                              ; preds = %235
  %243 = load i8, ptr %12, align 1
  %244 = zext i8 %243 to i32
  %245 = or i32 %244, 2
  %246 = trunc i32 %245 to i8
  store i8 %246, ptr %12, align 1
  br label %247

247:                                              ; preds = %242, %235
  %248 = getelementptr inbounds [2 x [2 x double]], ptr %13, i64 0, i64 1
  %249 = getelementptr inbounds [2 x double], ptr %248, i64 0, i64 1
  %250 = load double, ptr %249, align 8
  %251 = load float, ptr %5, align 4
  %252 = fpext float %251 to double
  %253 = fcmp olt double %250, %252
  br i1 %253, label %254, label %259

254:                                              ; preds = %247
  %255 = load i8, ptr %12, align 1
  %256 = zext i8 %255 to i32
  %257 = or i32 %256, 4
  %258 = trunc i32 %257 to i8
  store i8 %258, ptr %12, align 1
  br label %259

259:                                              ; preds = %254, %247
  %260 = getelementptr inbounds [2 x [2 x double]], ptr %13, i64 0, i64 0
  %261 = getelementptr inbounds [2 x double], ptr %260, i64 0, i64 1
  %262 = load double, ptr %261, align 8
  %263 = load float, ptr %5, align 4
  %264 = fpext float %263 to double
  %265 = fcmp olt double %262, %264
  br i1 %265, label %266, label %271

266:                                              ; preds = %259
  %267 = load i8, ptr %12, align 1
  %268 = zext i8 %267 to i32
  %269 = or i32 %268, 8
  %270 = trunc i32 %269 to i8
  store i8 %270, ptr %12, align 1
  br label %271

271:                                              ; preds = %266, %259
  %272 = load i8, ptr %12, align 1
  ret i8 %272
}