; Function Attrs: mustprogress nofree norecurse nosync nounwind willreturn memory(argmem: read) uwtable
define noundef zeroext range(i8 0, 16) i8 @_ZN13MarchingCubes12GetFaceIndexEPKffi(ptr noundef readonly captures(none) %0, float noundef %1, i32 noundef %2) local_unnamed_addr #2 align 2 {
  %.sroa.0 = alloca double, align 16
  %.sroa.7 = alloca double, align 8
  %.sroa.14 = alloca double, align 16
  %.sroa.21 = alloca double, align 8
  switch i32 %2, label %.thread111 [
    i32 0, label %.preheader
    i32 1, label %.preheader114
    i32 2, label %.preheader117
    i32 3, label %.preheader120.preheader
    i32 4, label %.preheader123
    i32 5, label %.preheader126.preheader
  ]

.preheader126.preheader:                          ; preds = %3
  %invariant.gep203 = getelementptr inbounds nuw i8, ptr %0, i64 16
  %gep = getelementptr inbounds nuw float, ptr %invariant.gep203, i64 0
  %4 = load float, ptr %gep, align 4
  %5 = fpext float %4 to double
  store double %5, ptr %.sroa.0, align 16
  %gep202.c = getelementptr inbounds nuw i8, ptr %gep, i64 8
  %6 = load float, ptr %gep202.c, align 4
  %7 = fpext float %6 to double
  store double %7, ptr %.sroa.7, align 8
  %gep.c = getelementptr inbounds nuw float, ptr %invariant.gep203, i64 1
  %8 = load float, ptr %gep.c, align 4
  %9 = fpext float %8 to double
  store double %9, ptr %.sroa.14, align 16
  %gep202.c.c = getelementptr inbounds nuw i8, ptr %gep.c, i64 8
  %10 = load float, ptr %gep202.c.c, align 4
  %11 = fpext float %10 to double
  store double %11, ptr %.sroa.21, align 8
  br label %.thread111

.preheader120.preheader:                          ; preds = %3
  %invariant.gep209 = getelementptr inbounds nuw i8, ptr %0, i64 8
  %gep210 = getelementptr inbounds nuw float, ptr %invariant.gep209, i64 0
  %12 = load float, ptr %gep210, align 4
  %13 = fpext float %12 to double
  store double %13, ptr %.sroa.0, align 16
  %gep208.c = getelementptr inbounds nuw i8, ptr %gep210, i64 16
  %14 = load float, ptr %gep208.c, align 4
  %15 = fpext float %14 to double
  store double %15, ptr %.sroa.7, align 8
  %gep210.c = getelementptr inbounds nuw float, ptr %invariant.gep209, i64 1
  %16 = load float, ptr %gep210.c, align 4
  %17 = fpext float %16 to double
  store double %17, ptr %.sroa.14, align 16
  %gep208.c.c = getelementptr inbounds nuw i8, ptr %gep210.c, i64 16
  %18 = load float, ptr %gep208.c.c, align 4
  %19 = fpext float %18 to double
  store double %19, ptr %.sroa.21, align 8
  br label %.thread111

.preheader:                                       ; preds = %3
  %invariant.gep215 = getelementptr inbounds nuw i8, ptr %0, i64 0
  %20 = load float, ptr %invariant.gep215, align 4
  %21 = fpext float %20 to double
  store double %21, ptr %.sroa.0, align 16
  %gep216.c = getelementptr inbounds nuw i8, ptr %invariant.gep215, i64 16
  %22 = load float, ptr %gep216.c, align 4
  %23 = fpext float %22 to double
  store double %23, ptr %.sroa.7, align 8
  %invariant.gep215.c = getelementptr inbounds nuw i8, ptr %0, i64 8
  %24 = load float, ptr %invariant.gep215.c, align 4
  %25 = fpext float %24 to double
  store double %25, ptr %.sroa.14, align 16
  %gep216.c.c = getelementptr inbounds nuw i8, ptr %invariant.gep215.c, i64 16
  %26 = load float, ptr %gep216.c.c, align 4
  %27 = fpext float %26 to double
  store double %27, ptr %.sroa.21, align 8
  br label %.thread111

.preheader114:                                    ; preds = %3
  %invariant.gep213 = getelementptr inbounds nuw float, ptr %0, i64 1
  %28 = load float, ptr %invariant.gep213, align 4
  %29 = fpext float %28 to double
  store double %29, ptr %.sroa.0, align 16
  %gep214.c = getelementptr inbounds nuw i8, ptr %invariant.gep213, i64 16
  %30 = load float, ptr %gep214.c, align 4
  %31 = fpext float %30 to double
  store double %31, ptr %.sroa.7, align 8
  %invariant.gep213.c = getelementptr inbounds nuw float, ptr %0, i64 3
  %32 = load float, ptr %invariant.gep213.c, align 4
  %33 = fpext float %32 to double
  store double %33, ptr %.sroa.14, align 16
  %gep214.c.c = getelementptr inbounds nuw i8, ptr %invariant.gep213.c, i64 16
  %34 = load float, ptr %gep214.c.c, align 4
  %35 = fpext float %34 to double
  store double %35, ptr %.sroa.21, align 8
  br label %.thread111

.preheader117:                                    ; preds = %3
  %invariant.gep211 = getelementptr inbounds nuw float, ptr %0, i64 0
  %36 = load float, ptr %invariant.gep211, align 4
  %37 = fpext float %36 to double
  store double %37, ptr %.sroa.0, align 16
  %gep212.c = getelementptr inbounds nuw i8, ptr %invariant.gep211, i64 16
  %38 = load float, ptr %gep212.c, align 4
  %39 = fpext float %38 to double
  store double %39, ptr %.sroa.7, align 8
  %invariant.gep211.c = getelementptr inbounds nuw float, ptr %0, i64 1
  %40 = load float, ptr %invariant.gep211.c, align 4
  %41 = fpext float %40 to double
  store double %41, ptr %.sroa.14, align 16
  %gep212.c.c = getelementptr inbounds nuw i8, ptr %invariant.gep211.c, i64 16
  %42 = load float, ptr %gep212.c.c, align 4
  %43 = fpext float %42 to double
  store double %43, ptr %.sroa.21, align 8
  br label %.thread111

.preheader123:                                    ; preds = %3
  %invariant.gep = getelementptr inbounds nuw float, ptr %0, i64 0
  %44 = load float, ptr %invariant.gep, align 4
  %45 = fpext float %44 to double
  store double %45, ptr %.sroa.0, align 16
  %gep204.c = getelementptr inbounds nuw i8, ptr %invariant.gep, i64 8
  %46 = load float, ptr %gep204.c, align 4
  %47 = fpext float %46 to double
  store double %47, ptr %.sroa.7, align 8
  %invariant.gep.c = getelementptr inbounds nuw float, ptr %0, i64 1
  %48 = load float, ptr %invariant.gep.c, align 4
  %49 = fpext float %48 to double
  store double %49, ptr %.sroa.14, align 16
  %gep204.c.c = getelementptr inbounds nuw i8, ptr %invariant.gep.c, i64 8
  %50 = load float, ptr %gep204.c.c, align 4
  %51 = fpext float %50 to double
  store double %51, ptr %.sroa.21, align 8
  br label %.thread111

.thread111:                                       ; preds = %.preheader126.preheader, %.preheader123, %.preheader120.preheader, %.preheader117, %.preheader114, %.preheader, %3
  %.sroa.0.0..sroa.0.0. = load double, ptr %.sroa.0, align 16
  %52 = fpext float %1 to double
  %53 = fcmp olt double %.sroa.0.0..sroa.0.0., %52
  %.0 = zext i1 %53 to i8
  %.sroa.14.0..sroa.14.16. = load double, ptr %.sroa.14, align 16
  %54 = fcmp olt double %.sroa.14.0..sroa.14.16., %52
  %55 = or disjoint i8 %.0, 2
  %.1 = select i1 %54, i8 %55, i8 %.0
  %.sroa.21.0..sroa.21.24. = load double, ptr %.sroa.21, align 8
  %56 = fcmp olt double %.sroa.21.0..sroa.21.24., %52
  %57 = or disjoint i8 %.1, 4
  %.2 = select i1 %56, i8 %57, i8 %.1
  %.sroa.7.0..sroa.7.8. = load double, ptr %.sroa.7, align 8
  %58 = fcmp olt double %.sroa.7.0..sroa.7.8., %52
  %59 = or disjoint i8 %.2, 8
  %.3 = select i1 %58, i8 %59, i8 %.2
  ret i8 %.3
}